target datalayout = "e-m:e-p270:32:32-p271:32:32-p272:64:64-i64:64-i128:128-f80:128-n8:16:32:64-S128"
target triple = "x86_64-pc-linux-gnu"

; Function Attrs: nounwind uwtable
define dso_local void @bit_set(ptr noundef %0, i64 noundef %1) #0 {
  %3 = alloca ptr, align 8
  %4 = alloca i64, align 8
  store ptr %0, ptr %3, align 8
  store i64 %1, ptr %4, align 8
  br label %5

5:                                                ; preds = %2
  br label %6

6:                                                ; preds = %5
  br label %7

7:                                                ; preds = %6
  br label %8

8:                                                ; preds = %7
  %9 = load i64, ptr %4, align 8
  %10 = and i64 %9, 63
  %11 = shl i64 1, %10
  %12 = load ptr, ptr %3, align 8
  %13 = load i64, ptr %4, align 8
  %14 = ashr i64 %13, 6
  %15 = add nsw i64 %14, 2
  %16 = getelementptr inbounds i64, ptr %12, i64 %15
  %17 = load i64, ptr %16, align 8
  %18 = or i64 %17, %11
  store i64 %18, ptr %16, align 8
  ret void
}

; Function Attrs: nounwind uwtable
define dso_local i64 @bit_size(ptr noundef %0) #0 {
  %2 = alloca ptr, align 8
  store ptr %0, ptr %2, align 8
  br label %3

3:                                                ; preds = %1
  br label %4

4:                                                ; preds = %3
  %5 = load ptr, ptr %2, align 8
  %6 = getelementptr inbounds i64, ptr %5, i64 1
  %7 = load i64, ptr %6, align 8
  ret i64 %7
}

; Function Attrs: nounwind uwtable
define dso_local ptr @bit_pick_cnt(ptr noundef %0, i64 noundef %1) #0 {
  %3 = alloca ptr, align 8
  %4 = alloca ptr, align 8
  %5 = alloca i64, align 8
  %6 = alloca i64, align 8
  %7 = alloca i64, align 8
  %8 = alloca i64, align 8
  %9 = alloca ptr, align 8
  %10 = alloca i32, align 4
  %11 = alloca i32, align 4
  store ptr %0, ptr %4, align 8
  store i64 %1, ptr %5, align 8
  call void @llvm.lifetime.start.p0(i64 8, ptr %6) #12
  store i64 0, ptr %6, align 8
  call void @llvm.lifetime.start.p0(i64 8, ptr %7) #12
  call void @llvm.lifetime.start.p0(i64 8, ptr %8) #12
  store i64 0, ptr %8, align 8
  call void @llvm.lifetime.start.p0(i64 8, ptr %9) #12
  br label %12

12:                                               ; preds = %2
  br label %13

13:                                               ; preds = %12
  br label %14

14:                                               ; preds = %13
  %15 = load ptr, ptr %4, align 8
  %16 = getelementptr inbounds i64, ptr %15, i64 1
  %17 = load i64, ptr %16, align 8
  %18 = load i64, ptr %5, align 8
  %19 = icmp slt i64 %17, %18
  br i1 %19, label %20, label %21

20:                                               ; preds = %14
  store ptr null, ptr %3, align 8
  store i32 1, ptr %10, align 4
  br label %141

21:                                               ; preds = %14
  %22 = load ptr, ptr %4, align 8
  %23 = call i64 @bit_size(ptr noundef %22)
  %24 = call ptr @bit_alloc(i64 noundef %23)
  store ptr %24, ptr %9, align 8
  br label %25

25:                                               ; preds = %126, %124, %21
  %26 = load i64, ptr %6, align 8
  %27 = load ptr, ptr %4, align 8
  %28 = getelementptr inbounds i64, ptr %27, i64 1
  %29 = load i64, ptr %28, align 8
  %30 = icmp slt i64 %26, %29
  br i1 %30, label %31, label %35

31:                                               ; preds = %25
  %32 = load i64, ptr %8, align 8
  %33 = load i64, ptr %5, align 8
  %34 = icmp slt i64 %32, %33
  br label %35

35:                                               ; preds = %31, %25
  %36 = phi i1 [ false, %25 ], [ %34, %31 ]
  br i1 %36, label %37, label %127

37:                                               ; preds = %35
  call void @llvm.lifetime.start.p0(i64 4, ptr %11) #12
  %38 = load i64, ptr %6, align 8
  %39 = ashr i64 %38, 6
  %40 = add nsw i64 %39, 2
  %41 = trunc i64 %40 to i32
  store i32 %41, ptr %11, align 4
  %42 = load ptr, ptr %4, align 8
  %43 = load i32, ptr %11, align 4
  %44 = sext i32 %43 to i64
  %45 = getelementptr inbounds i64, ptr %42, i64 %44
  %46 = load i64, ptr %45, align 8
  %47 = icmp eq i64 %46, 0
  br i1 %47, label %48, label %51

48:                                               ; preds = %37
  %49 = load i64, ptr %6, align 8
  %50 = add i64 %49, 64
  store i64 %50, ptr %6, align 8
  store i32 4, ptr %10, align 4
  br label %124, !llvm.loop !35

51:                                               ; preds = %37
  %52 = load ptr, ptr %4, align 8
  %53 = load i32, ptr %11, align 4
  %54 = sext i32 %53 to i64
  %55 = getelementptr inbounds i64, ptr %52, i64 %54
  %56 = load i64, ptr %55, align 8
  %57 = call i64 @llvm.ctpop.i64(i64 %56)
  %58 = trunc i64 %57 to i32
  %59 = sext i32 %58 to i64
  store i64 %59, ptr %7, align 8
  %60 = load i64, ptr %8, align 8
  %61 = load i64, ptr %7, align 8
  %62 = add nsw i64 %60, %61
  %63 = load i64, ptr %5, align 8
  %64 = icmp sle i64 %62, %63
  br i1 %64, label %65, label %88

65:                                               ; preds = %51
  %66 = load i64, ptr %6, align 8
  %67 = add i64 %66, 64
  %68 = sub i64 %67, 1
  %69 = load ptr, ptr %4, align 8
  %70 = getelementptr inbounds i64, ptr %69, i64 1
  %71 = load i64, ptr %70, align 8
  %72 = icmp ult i64 %68, %71
  br i1 %72, label %73, label %88

73:                                               ; preds = %65
  %74 = load ptr, ptr %4, align 8
  %75 = load i32, ptr %11, align 4
  %76 = sext i32 %75 to i64
  %77 = getelementptr inbounds i64, ptr %74, i64 %76
  %78 = load i64, ptr %77, align 8
  %79 = load ptr, ptr %9, align 8
  %80 = load i32, ptr %11, align 4
  %81 = sext i32 %80 to i64
  %82 = getelementptr inbounds i64, ptr %79, i64 %81
  store i64 %78, ptr %82, align 8
  %83 = load i64, ptr %7, align 8
  %84 = load i64, ptr %8, align 8
  %85 = add nsw i64 %84, %83
  store i64 %85, ptr %8, align 8
  %86 = load i64, ptr %6, align 8
  %87 = add i64 %86, 64
  store i64 %87, ptr %6, align 8
  store i32 4, ptr %10, align 4
  br label %124, !llvm.loop !35

88:                                               ; preds = %65, %51
  br label %89

89:                                               ; preds = %120, %88
  %90 = load i64, ptr %6, align 8
  %91 = load ptr, ptr %4, align 8
  %92 = getelementptr inbounds i64, ptr %91, i64 1
  %93 = load i64, ptr %92, align 8
  %94 = icmp slt i64 %90, %93
  br i1 %94, label %95, label %99

95:                                               ; preds = %89
  %96 = load i64, ptr %8, align 8
  %97 = load i64, ptr %5, align 8
  %98 = icmp slt i64 %96, %97
  br label %99

99:                                               ; preds = %95, %89
  %100 = phi i1 [ false, %89 ], [ %98, %95 ]
  br i1 %100, label %101, label %123

101:                                              ; preds = %99
  %102 = load ptr, ptr %4, align 8
  %103 = load i64, ptr %6, align 8
  %104 = ashr i64 %103, 6
  %105 = add nsw i64 %104, 2
  %106 = getelementptr inbounds i64, ptr %102, i64 %105
  %107 = load i64, ptr %106, align 8
  %108 = load i64, ptr %6, align 8
  %109 = and i64 %108, 63
  %110 = shl i64 1, %109
  %111 = and i64 %107, %110
  %112 = icmp ne i64 %111, 0
  br i1 %112, label %113, label %114

113:                                              ; preds = %101
  br i1 true, label %115, label %120

114:                                              ; preds = %101
  br i1 false, label %115, label %120

115:                                              ; preds = %114, %113
  %116 = load ptr, ptr %9, align 8
  %117 = load i64, ptr %6, align 8
  call void @bit_set(ptr noundef %116, i64 noundef %117)
  %118 = load i64, ptr %8, align 8
  %119 = add nsw i64 %118, 1
  store i64 %119, ptr %8, align 8
  br label %120

120:                                              ; preds = %115, %114, %113
  %121 = load i64, ptr %6, align 8
  %122 = add nsw i64 %121, 1
  store i64 %122, ptr %6, align 8
  br label %89, !llvm.loop !36

123:                                              ; preds = %99
  store i32 0, ptr %10, align 4
  br label %124

124:                                              ; preds = %123, %73, %48
  call void @llvm.lifetime.end.p0(i64 4, ptr %11) #12
  %125 = load i32, ptr %10, align 4
  switch i32 %125, label %143 [
    i32 0, label %126
    i32 4, label %25
  ]

126:                                              ; preds = %124
  br label %25, !llvm.loop !35

127:                                              ; preds = %35
  %128 = load i64, ptr %8, align 8
  %129 = load i64, ptr %5, align 8
  %130 = icmp slt i64 %128, %129
  br i1 %130, label %131, label %139

131:                                              ; preds = %127
  br label %132

132:                                              ; preds = %131
  %133 = load ptr, ptr %9, align 8
  %134 = icmp ne ptr %133, null
  br i1 %134, label %135, label %136

135:                                              ; preds = %132
  call void @slurm_bit_free(ptr noundef %9)
  br label %136

136:                                              ; preds = %135, %132
  store ptr null, ptr %9, align 8
  br label %137

137:                                              ; preds = %136
  br label %138

138:                                              ; preds = %137
  br label %139

139:                                              ; preds = %138, %127
  %140 = load ptr, ptr %9, align 8
  store ptr %140, ptr %3, align 8
  store i32 1, ptr %10, align 4
  br label %141

141:                                              ; preds = %139, %20
  call void @llvm.lifetime.end.p0(i64 8, ptr %9) #12
  call void @llvm.lifetime.end.p0(i64 8, ptr %8) #12
  call void @llvm.lifetime.end.p0(i64 8, ptr %7) #12
  call void @llvm.lifetime.end.p0(i64 8, ptr %6) #12
  %142 = load ptr, ptr %3, align 8
  ret ptr %142

143:                                              ; preds = %124
  unreachable
}