; Function Attrs: nounwind uwtable
define dso_local noundef ptr @bit_pick_cnt(ptr noundef readonly captures(none) %0, i64 noundef %1) #0 {
  %3 = alloca ptr, align 8
  call void @llvm.lifetime.start.p0(i64 8, ptr nonnull %3) #17
  %4 = getelementptr inbounds nuw i8, ptr %0, i64 8
  %5 = load i64, ptr %4, align 8
  %6 = icmp slt i64 %5, %1
  br i1 %6, label %57, label %7

7:                                                ; preds = %2
  %8 = tail call ptr @bit_alloc(i64 noundef %5)
  store ptr %8, ptr %3, align 8
  %9 = load i64, ptr %4, align 8
  %10 = icmp sgt i64 %9, 0
  %11 = icmp sgt i64 %1, 0
  %12 = and i1 %10, %11
  br i1 %12, label %.lr.ph52, label %._crit_edge

.lr.ph52:                                         ; preds = %7
  %invariant.gep = getelementptr i8, ptr %0, i64 16
  %invariant.gep60 = getelementptr i8, ptr %8, i64 16
  br label %13

13:                                               ; preds = %.lr.ph52, %.loopexit
  %14 = phi i64 [ %9, %.lr.ph52 ], [ %51, %.loopexit ]
  %.03651 = phi i64 [ 0, %.lr.ph52 ], [ %.1, %.loopexit ]
  %.03750 = phi i64 [ 0, %.lr.ph52 ], [ %.138, %.loopexit ]
  %15 = shl i64 %.03750, 26
  %sext = add i64 %15, 8589934592
  %16 = ashr i64 %sext, 32
  %17 = getelementptr inbounds i64, ptr %0, i64 %16
  %18 = load i64, ptr %17, align 8
  %19 = icmp eq i64 %18, 0
  br i1 %19, label %20, label %22

20:                                               ; preds = %13
  %21 = add i64 %.03750, 64
  br label %.loopexit, !llvm.loop !37

22:                                               ; preds = %13
  %23 = tail call range(i64 1, 65) i64 @llvm.ctpop.i64(i64 %18)
  %24 = add nsw i64 %23, %.03651
  %.not44 = icmp sle i64 %24, %1
  %25 = add i64 %.03750, 63
  %26 = icmp ult i64 %25, %14
  %or.cond = and i1 %26, %.not44
  br i1 %or.cond, label %30, label %.preheader

.preheader:                                       ; preds = %22
  %27 = icmp slt i64 %.03750, %14
  %28 = icmp slt i64 %.03651, %1
  %29 = select i1 %27, i1 %28, i1 false
  br i1 %29, label %.lr.ph, label %.loopexit

30:                                               ; preds = %22
  %31 = add i64 %.03750, 64
  %32 = getelementptr inbounds i64, ptr %8, i64 %16
  store i64 %18, ptr %32, align 8
  %.pre56 = load i64, ptr %4, align 8
  br label %.loopexit, !llvm.loop !37

.lr.ph:                                           ; preds = %.preheader, %44
  %33 = phi i64 [ %45, %44 ], [ %14, %.preheader ]
  %34 = phi i64 [ %46, %44 ], [ %14, %.preheader ]
  %.248 = phi i64 [ %.3, %44 ], [ %.03651, %.preheader ]
  %.23947 = phi i64 [ %47, %44 ], [ %.03750, %.preheader ]
  %35 = ashr i64 %.23947, 6
  %gep = getelementptr i64, ptr %invariant.gep, i64 %35
  %36 = load i64, ptr %gep, align 8
  %37 = and i64 %.23947, 63
  %38 = shl nuw i64 1, %37
  %39 = and i64 %36, %38
  %.not45 = icmp eq i64 %39, 0
  br i1 %.not45, label %44, label %40

40:                                               ; preds = %.lr.ph
  %gep61 = getelementptr i64, ptr %invariant.gep60, i64 %35
  %41 = load i64, ptr %gep61, align 8
  %42 = or i64 %41, %38
  store i64 %42, ptr %gep61, align 8
  %43 = add nsw i64 %.248, 1
  %.pre = load i64, ptr %4, align 8
  br label %44

44:                                               ; preds = %.lr.ph, %40
  %45 = phi i64 [ %.pre, %40 ], [ %33, %.lr.ph ]
  %46 = phi i64 [ %.pre, %40 ], [ %34, %.lr.ph ]
  %.3 = phi i64 [ %43, %40 ], [ %.248, %.lr.ph ]
  %47 = add nsw i64 %.23947, 1
  %48 = icmp slt i64 %47, %46
  %49 = icmp slt i64 %.3, %1
  %50 = select i1 %48, i1 %49, i1 false
  br i1 %50, label %.lr.ph, label %.loopexit, !llvm.loop !38

.loopexit:                                        ; preds = %44, %.preheader, %30, %20
  %51 = phi i64 [ %14, %20 ], [ %.pre56, %30 ], [ %14, %.preheader ], [ %45, %44 ]
  %.138 = phi i64 [ %21, %20 ], [ %31, %30 ], [ %.03750, %.preheader ], [ %47, %44 ]
  %.1 = phi i64 [ %.03651, %20 ], [ %24, %30 ], [ %.03651, %.preheader ], [ %.3, %44 ]
  %52 = icmp slt i64 %.138, %51
  %53 = icmp slt i64 %.1, %1
  %54 = select i1 %52, i1 %53, i1 false
  br i1 %54, label %13, label %._crit_edge

._crit_edge:                                      ; preds = %.loopexit, %7
  %.lcssa = phi i1 [ %11, %7 ], [ %53, %.loopexit ]
  br i1 %.lcssa, label %55, label %57

55:                                               ; preds = %._crit_edge
  %.not = icmp eq ptr %8, null
  br i1 %.not, label %57, label %56

56:                                               ; preds = %55
  call void @slurm_bit_free(ptr noundef nonnull %3)
  br label %57

57:                                               ; preds = %55, %56, %._crit_edge, %2
  %.0 = phi ptr [ null, %2 ], [ %8, %._crit_edge ], [ null, %56 ], [ null, %55 ]
  call void @llvm.lifetime.end.p0(i64 8, ptr nonnull %3) #17
  ret ptr %.0
}